target datalayout = "e-m:e-p270:32:32-p271:32:32-p272:64:64-i64:64-i128:128-f80:128-n8:16:32:64-S128"
target triple = "x86_64-pc-linux-gnu"

%struct.dt_import_session_t = type { i32, ptr, ptr, ptr, ptr }

; Function Attrs: nounwind uwtable
define void @dt_import_session_destroy(ptr noundef %0) #0 {
  %2 = alloca ptr, align 8
  store ptr %0, ptr %2, align 8, !tbaa !6
  %3 = load ptr, ptr %2, align 8, !tbaa !6
  %4 = getelementptr inbounds nuw %struct.dt_import_session_t, ptr %3, i32 0, i32 0
  %5 = load i32, ptr %4, align 8, !tbaa !11
  %6 = add i32 %5, -1
  store i32 %6, ptr %4, align 8, !tbaa !11
  %7 = icmp ne i32 %6, 0
  br i1 %7, label %8, label %9

8:                                                ; preds = %1
  br label %15

9:                                                ; preds = %1
  %10 = load ptr, ptr %2, align 8, !tbaa !6
  call void @_import_session_cleanup_filmroll(ptr noundef %10)
  %11 = load ptr, ptr %2, align 8, !tbaa !6
  %12 = getelementptr inbounds nuw %struct.dt_import_session_t, ptr %11, i32 0, i32 2
  %13 = load ptr, ptr %12, align 8, !tbaa !17
  call void @dt_variables_params_destroy(ptr noundef %13)
  %14 = load ptr, ptr %2, align 8, !tbaa !6
  call void @g_free(ptr noundef %14)
  br label %15

15:                                               ; preds = %9, %8
  ret void
}