; Function Attrs: nounwind uwtable
define void @dt_import_session_destroy(ptr noundef %0) local_unnamed_addr #0 {
  %2 = load i32, ptr %0, align 8, !tbaa !6
  %3 = add i32 %2, -1
  store i32 %3, ptr %0, align 8, !tbaa !6
  %.not = icmp eq i32 %3, 0
  br i1 %.not, label %4, label %7

4:                                                ; preds = %1
  tail call fastcc void @_import_session_cleanup_filmroll(ptr noundef nonnull %0)
  %5 = getelementptr inbounds nuw i8, ptr %0, i64 16
  %6 = load ptr, ptr %5, align 8, !tbaa !15
  tail call void @dt_variables_params_destroy(ptr noundef %6) #9
  tail call void @g_free(ptr noundef nonnull %0) #9
  br label %7

7:                                                ; preds = %1, %4
  ret void
}